; Function Attrs: mustprogress nounwind uwtable
define internal fastcc void @_ZL15parseCondBranchRN4llvm12MachineInstrERPNS_17MachineBasicBlockERNS_15SmallVectorImplINS_14MachineOperandEEE(ptr nocapture noundef nonnull readonly align 8 dereferenceable(70) %0, ptr nocapture noundef nonnull writeonly align 8 dereferenceable(8) %1, ptr noundef nonnull align 8 dereferenceable(16) %2) unnamed_addr #2 {
  %4 = alloca %"class.llvm::MachineOperand", align 8
  %5 = getelementptr inbounds nuw i8, ptr %0, i64 32
  %6 = load ptr, ptr %5, align 8
  %7 = getelementptr inbounds i8, ptr %6, i64 80
  %8 = load ptr, ptr %7, align 8
  store ptr %8, ptr %1, align 8
  %9 = getelementptr inbounds nuw i8, ptr %0, i64 68
  %10 = load i16, ptr %9, align 4
  switch i16 %10, label %_ZL20getCondFromBranchOpcj.exit [
    i16 12154, label %11
    i16 12156, label %12
    i16 12074, label %13
    i16 12083, label %14
    i16 12081, label %15
    i16 12077, label %16
    i16 12082, label %17
    i16 12078, label %18
  ]

11:                                               ; preds = %3
  br label %_ZL20getCondFromBranchOpcj.exit

12:                                               ; preds = %3
  br label %_ZL20getCondFromBranchOpcj.exit

13:                                               ; preds = %3
  br label %_ZL20getCondFromBranchOpcj.exit

14:                                               ; preds = %3
  br label %_ZL20getCondFromBranchOpcj.exit

15:                                               ; preds = %3
  br label %_ZL20getCondFromBranchOpcj.exit

16:                                               ; preds = %3
  br label %_ZL20getCondFromBranchOpcj.exit

17:                                               ; preds = %3
  br label %_ZL20getCondFromBranchOpcj.exit

18:                                               ; preds = %3
  br label %_ZL20getCondFromBranchOpcj.exit

_ZL20getCondFromBranchOpcj.exit:                  ; preds = %3, %11, %12, %13, %14, %15, %16, %17, %18
  %.0.i = phi i64 [ 5, %18 ], [ 4, %17 ], [ 3, %16 ], [ 2, %15 ], [ 1, %14 ], [ 0, %13 ], [ 1, %12 ], [ 0, %11 ], [ 6, %3 ]
  store i32 1, ptr %4, align 8, !alias.scope !141
  %19 = getelementptr inbounds nuw i8, ptr %4, i64 8
  store ptr null, ptr %19, align 8, !alias.scope !141
  %20 = getelementptr inbounds nuw i8, ptr %4, i64 16
  store i64 %.0.i, ptr %20, align 8, !alias.scope !141
  call void @_ZN4llvm23SmallVectorTemplateBaseINS_14MachineOperandELb1EE9push_backERKS1_(ptr noundef nonnull align 8 dereferenceable(16) %2, ptr noundef nonnull align 8 dereferenceable(32) %4)
  %21 = load ptr, ptr %5, align 8
  call void @_ZN4llvm23SmallVectorTemplateBaseINS_14MachineOperandELb1EE9push_backERKS1_(ptr noundef nonnull align 8 dereferenceable(16) %2, ptr noundef nonnull align 8 dereferenceable(32) %21)
  %22 = load ptr, ptr %5, align 8
  %23 = getelementptr inbounds i8, ptr %22, i64 32
  call void @_ZN4llvm23SmallVectorTemplateBaseINS_14MachineOperandELb1EE9push_backERKS1_(ptr noundef nonnull align 8 dereferenceable(16) %2, ptr noundef nonnull align 8 dereferenceable(32) %23)
  ret void
}